target datalayout = "e-m:e-p270:32:32-p271:32:32-p272:64:64-i64:64-i128:128-f80:128-n8:16:32:64-S128"
target triple = "x86_64-pc-linux-gnu"

%struct._generic_SUNMatrix = type { ptr, ptr, ptr }
%struct._SUNMatrixContent_Dense = type { i64, i64, ptr, i64, ptr }

; Function Attrs: nounwind uwtable
define dso_local i32 @jacrob(double noundef %0, double noundef %1, ptr noundef %2, ptr noundef %3, ptr noundef %4, ptr noundef %5, ptr noundef %6, ptr noundef %7, ptr noundef %8, ptr noundef %9) #0 {
  %11 = alloca double, align 8
  %12 = alloca double, align 8
  %13 = alloca ptr, align 8
  %14 = alloca ptr, align 8
  %15 = alloca ptr, align 8
  %16 = alloca ptr, align 8
  %17 = alloca ptr, align 8
  %18 = alloca ptr, align 8
  %19 = alloca ptr, align 8
  %20 = alloca ptr, align 8
  %21 = alloca ptr, align 8
  store double %0, ptr %11, align 8, !tbaa !22
  store double %1, ptr %12, align 8, !tbaa !22
  store ptr %2, ptr %13, align 8, !tbaa !8
  store ptr %3, ptr %14, align 8, !tbaa !8
  store ptr %4, ptr %15, align 8, !tbaa !8
  store ptr %5, ptr %16, align 8, !tbaa !12
  store ptr %6, ptr %17, align 8, !tbaa !4
  store ptr %7, ptr %18, align 8, !tbaa !8
  store ptr %8, ptr %19, align 8, !tbaa !8
  store ptr %9, ptr %20, align 8, !tbaa !8
  call void @llvm.lifetime.start.p0(i64 8, ptr %21) #5
  %22 = load ptr, ptr %13, align 8, !tbaa !8
  %23 = call ptr @N_VGetArrayPointer(ptr noundef %22)
  store ptr %23, ptr %21, align 8, !tbaa !10
  %24 = load double, ptr %12, align 8, !tbaa !22
  %25 = fsub double -4.000000e-02, %24
  %26 = load ptr, ptr %16, align 8, !tbaa !12
  %27 = getelementptr inbounds nuw %struct._generic_SUNMatrix, ptr %26, i32 0, i32 0
  %28 = load ptr, ptr %27, align 8, !tbaa !30
  %29 = getelementptr inbounds nuw %struct._SUNMatrixContent_Dense, ptr %28, i32 0, i32 4
  %30 = load ptr, ptr %29, align 8, !tbaa !33
  %31 = getelementptr inbounds ptr, ptr %30, i64 0
  %32 = load ptr, ptr %31, align 8, !tbaa !10
  %33 = getelementptr inbounds double, ptr %32, i64 0
  store double %25, ptr %33, align 8, !tbaa !22
  %34 = load ptr, ptr %16, align 8, !tbaa !12
  %35 = getelementptr inbounds nuw %struct._generic_SUNMatrix, ptr %34, i32 0, i32 0
  %36 = load ptr, ptr %35, align 8, !tbaa !30
  %37 = getelementptr inbounds nuw %struct._SUNMatrixContent_Dense, ptr %36, i32 0, i32 4
  %38 = load ptr, ptr %37, align 8, !tbaa !33
  %39 = getelementptr inbounds ptr, ptr %38, i64 0
  %40 = load ptr, ptr %39, align 8, !tbaa !10
  %41 = getelementptr inbounds double, ptr %40, i64 1
  store double 4.000000e-02, ptr %41, align 8, !tbaa !22
  %42 = load ptr, ptr %16, align 8, !tbaa !12
  %43 = getelementptr inbounds nuw %struct._generic_SUNMatrix, ptr %42, i32 0, i32 0
  %44 = load ptr, ptr %43, align 8, !tbaa !30
  %45 = getelementptr inbounds nuw %struct._SUNMatrixContent_Dense, ptr %44, i32 0, i32 4
  %46 = load ptr, ptr %45, align 8, !tbaa !33
  %47 = getelementptr inbounds ptr, ptr %46, i64 0
  %48 = load ptr, ptr %47, align 8, !tbaa !10
  %49 = getelementptr inbounds double, ptr %48, i64 2
  store double 1.000000e+00, ptr %49, align 8, !tbaa !22
  %50 = load ptr, ptr %21, align 8, !tbaa !10
  %51 = getelementptr inbounds double, ptr %50, i64 2
  %52 = load double, ptr %51, align 8, !tbaa !22
  %53 = fmul double 1.000000e+04, %52
  %54 = load ptr, ptr %16, align 8, !tbaa !12
  %55 = getelementptr inbounds nuw %struct._generic_SUNMatrix, ptr %54, i32 0, i32 0
  %56 = load ptr, ptr %55, align 8, !tbaa !30
  %57 = getelementptr inbounds nuw %struct._SUNMatrixContent_Dense, ptr %56, i32 0, i32 4
  %58 = load ptr, ptr %57, align 8, !tbaa !33
  %59 = getelementptr inbounds ptr, ptr %58, i64 1
  %60 = load ptr, ptr %59, align 8, !tbaa !10
  %61 = getelementptr inbounds double, ptr %60, i64 0
  store double %53, ptr %61, align 8, !tbaa !22
  %62 = load ptr, ptr %21, align 8, !tbaa !10
  %63 = getelementptr inbounds double, ptr %62, i64 2
  %64 = load double, ptr %63, align 8, !tbaa !22
  %65 = load ptr, ptr %21, align 8, !tbaa !10
  %66 = getelementptr inbounds double, ptr %65, i64 1
  %67 = load double, ptr %66, align 8, !tbaa !22
  %68 = fmul double 6.000000e+07, %67
  %69 = fneg double %68
  %70 = call double @llvm.fmuladd.f64(double -1.000000e+04, double %64, double %69)
  %71 = load double, ptr %12, align 8, !tbaa !22
  %72 = fsub double %70, %71
  %73 = load ptr, ptr %16, align 8, !tbaa !12
  %74 = getelementptr inbounds nuw %struct._generic_SUNMatrix, ptr %73, i32 0, i32 0
  %75 = load ptr, ptr %74, align 8, !tbaa !30
  %76 = getelementptr inbounds nuw %struct._SUNMatrixContent_Dense, ptr %75, i32 0, i32 4
  %77 = load ptr, ptr %76, align 8, !tbaa !33
  %78 = getelementptr inbounds ptr, ptr %77, i64 1
  %79 = load ptr, ptr %78, align 8, !tbaa !10
  %80 = getelementptr inbounds double, ptr %79, i64 1
  store double %72, ptr %80, align 8, !tbaa !22
  %81 = load ptr, ptr %16, align 8, !tbaa !12
  %82 = getelementptr inbounds nuw %struct._generic_SUNMatrix, ptr %81, i32 0, i32 0
  %83 = load ptr, ptr %82, align 8, !tbaa !30
  %84 = getelementptr inbounds nuw %struct._SUNMatrixContent_Dense, ptr %83, i32 0, i32 4
  %85 = load ptr, ptr %84, align 8, !tbaa !33
  %86 = getelementptr inbounds ptr, ptr %85, i64 1
  %87 = load ptr, ptr %86, align 8, !tbaa !10
  %88 = getelementptr inbounds double, ptr %87, i64 2
  store double 1.000000e+00, ptr %88, align 8, !tbaa !22
  %89 = load ptr, ptr %21, align 8, !tbaa !10
  %90 = getelementptr inbounds double, ptr %89, i64 1
  %91 = load double, ptr %90, align 8, !tbaa !22
  %92 = fmul double 1.000000e+04, %91
  %93 = load ptr, ptr %16, align 8, !tbaa !12
  %94 = getelementptr inbounds nuw %struct._generic_SUNMatrix, ptr %93, i32 0, i32 0
  %95 = load ptr, ptr %94, align 8, !tbaa !30
  %96 = getelementptr inbounds nuw %struct._SUNMatrixContent_Dense, ptr %95, i32 0, i32 4
  %97 = load ptr, ptr %96, align 8, !tbaa !33
  %98 = getelementptr inbounds ptr, ptr %97, i64 2
  %99 = load ptr, ptr %98, align 8, !tbaa !10
  %100 = getelementptr inbounds double, ptr %99, i64 0
  store double %92, ptr %100, align 8, !tbaa !22
  %101 = load ptr, ptr %21, align 8, !tbaa !10
  %102 = getelementptr inbounds double, ptr %101, i64 1
  %103 = load double, ptr %102, align 8, !tbaa !22
  %104 = fmul double -1.000000e+04, %103
  %105 = load ptr, ptr %16, align 8, !tbaa !12
  %106 = getelementptr inbounds nuw %struct._generic_SUNMatrix, ptr %105, i32 0, i32 0
  %107 = load ptr, ptr %106, align 8, !tbaa !30
  %108 = getelementptr inbounds nuw %struct._SUNMatrixContent_Dense, ptr %107, i32 0, i32 4
  %109 = load ptr, ptr %108, align 8, !tbaa !33
  %110 = getelementptr inbounds ptr, ptr %109, i64 2
  %111 = load ptr, ptr %110, align 8, !tbaa !10
  %112 = getelementptr inbounds double, ptr %111, i64 1
  store double %104, ptr %112, align 8, !tbaa !22
  %113 = load ptr, ptr %16, align 8, !tbaa !12
  %114 = getelementptr inbounds nuw %struct._generic_SUNMatrix, ptr %113, i32 0, i32 0
  %115 = load ptr, ptr %114, align 8, !tbaa !30
  %116 = getelementptr inbounds nuw %struct._SUNMatrixContent_Dense, ptr %115, i32 0, i32 4
  %117 = load ptr, ptr %116, align 8, !tbaa !33
  %118 = getelementptr inbounds ptr, ptr %117, i64 2
  %119 = load ptr, ptr %118, align 8, !tbaa !10
  %120 = getelementptr inbounds double, ptr %119, i64 2
  store double 1.000000e+00, ptr %120, align 8, !tbaa !22
  call void @llvm.lifetime.end.p0(i64 8, ptr %21) #5
  ret i32 0
}