; Function Attrs: nounwind uwtable
define dso_local noundef i32 @jacrob(double %0, double noundef %1, ptr noundef %2, ptr readnone captures(none) %3, ptr readnone captures(none) %4, ptr noundef readonly captures(none) %5, ptr readnone captures(none) %6, ptr readnone captures(none) %7, ptr readnone captures(none) %8, ptr readnone captures(none) %9) #0 {
  %11 = tail call ptr @N_VGetArrayPointer(ptr noundef %2) #7
  %12 = fsub double -4.000000e-02, %1
  %13 = load ptr, ptr %5, align 8, !tbaa !16
  %14 = getelementptr inbounds nuw i8, ptr %13, i64 32
  %15 = load ptr, ptr %14, align 8, !tbaa !19
  %16 = load ptr, ptr %15, align 8, !tbaa !24
  store double %12, ptr %16, align 8, !tbaa !11
  %17 = getelementptr inbounds nuw i8, ptr %16, i64 8
  store double 4.000000e-02, ptr %17, align 8, !tbaa !11
  %18 = getelementptr inbounds nuw i8, ptr %16, i64 16
  store double 1.000000e+00, ptr %18, align 8, !tbaa !11
  %19 = getelementptr inbounds nuw i8, ptr %11, i64 16
  %20 = load double, ptr %19, align 8, !tbaa !11
  %21 = fmul double %20, 1.000000e+04
  %22 = getelementptr inbounds nuw i8, ptr %15, i64 8
  %23 = load ptr, ptr %22, align 8, !tbaa !24
  store double %21, ptr %23, align 8, !tbaa !11
  %24 = load double, ptr %19, align 8, !tbaa !11
  %25 = getelementptr inbounds nuw i8, ptr %11, i64 8
  %26 = load double, ptr %25, align 8, !tbaa !11
  %27 = fmul double %26, -6.000000e+07
  %28 = tail call double @llvm.fmuladd.f64(double %24, double -1.000000e+04, double %27)
  %29 = fsub double %28, %1
  %30 = getelementptr inbounds nuw i8, ptr %23, i64 8
  store double %29, ptr %30, align 8, !tbaa !11
  %31 = getelementptr inbounds nuw i8, ptr %23, i64 16
  store double 1.000000e+00, ptr %31, align 8, !tbaa !11
  %32 = load double, ptr %25, align 8, !tbaa !11
  %33 = fmul double %32, 1.000000e+04
  %34 = getelementptr inbounds nuw i8, ptr %15, i64 16
  %35 = load ptr, ptr %34, align 8, !tbaa !24
  store double %33, ptr %35, align 8, !tbaa !11
  %36 = load double, ptr %25, align 8, !tbaa !11
  %37 = fmul double %36, -1.000000e+04
  %38 = getelementptr inbounds nuw i8, ptr %35, i64 8
  store double %37, ptr %38, align 8, !tbaa !11
  %39 = getelementptr inbounds nuw i8, ptr %35, i64 16
  store double 1.000000e+00, ptr %39, align 8, !tbaa !11
  ret i32 0
}